target datalayout = "e-m:e-p270:32:32-p271:32:32-p272:64:64-i64:64-i128:128-f80:128-n8:16:32:64-S128"
target triple = "x86_64-pc-linux-gnu"

%struct.AVFilterContext = type { ptr, ptr, ptr, ptr, ptr, i32, ptr, ptr, i32, ptr, ptr, i32, i32, ptr, ptr, ptr, ptr, i32, ptr, i32, i32 }
%struct.ADecorrelateContext = type { ptr, i32, i64, i32, ptr, %struct.AVLFG, ptr }
%struct.AVLFG = type { [64 x i32], i32 }
%struct.APContext = type { i32, i32, ptr, ptr, double, double, double, double }
%struct.AVChannelLayout = type { i32, i32, %union.anon.1, ptr }
%union.anon.1 = type { i64 }
%struct.AVRational = type { i32, i32 }
%struct.AVFrame = type { [8 x ptr], [8 x i32], ptr, i32, i32, i32, i32, i32, %struct.AVRational, i64, i64, %struct.AVRational, i32, ptr, i32, i32, [8 x ptr], ptr, i32, ptr, i32, i32, i32, i32, i32, i32, i32, i64, ptr, i32, ptr, ptr, i64, i64, i64, i64, ptr, %struct.AVChannelLayout, i64 }

; Function Attrs: nounwind uwtable
define internal double @ap_run(ptr noundef %0, double noundef %1) #1 {
  %3 = alloca ptr, align 8
  %4 = alloca double, align 8
  %5 = alloca i32, align 4
  %6 = alloca i32, align 4
  %7 = alloca i32, align 4
  %8 = alloca double, align 8
  store ptr %0, ptr %3, align 8, !tbaa !67
  store double %1, ptr %4, align 8, !tbaa !68
  call void @llvm.lifetime.start.p0(i64 4, ptr %5) #8
  %9 = load ptr, ptr %3, align 8, !tbaa !67
  %10 = getelementptr inbounds nuw %struct.APContext, ptr %9, i32 0, i32 1
  %11 = load i32, ptr %10, align 4, !tbaa !72
  %12 = icmp slt i32 %11, 1
  br i1 %12, label %13, label %17

13:                                               ; preds = %2
  %14 = load ptr, ptr %3, align 8, !tbaa !67
  %15 = getelementptr inbounds nuw %struct.APContext, ptr %14, i32 0, i32 0
  %16 = load i32, ptr %15, align 8, !tbaa !70
  br label %21

17:                                               ; preds = %2
  %18 = load ptr, ptr %3, align 8, !tbaa !67
  %19 = getelementptr inbounds nuw %struct.APContext, ptr %18, i32 0, i32 1
  %20 = load i32, ptr %19, align 4, !tbaa !72
  br label %21

21:                                               ; preds = %17, %13
  %22 = phi i32 [ %16, %13 ], [ %20, %17 ]
  %23 = sub nsw i32 %22, 1
  store i32 %23, ptr %5, align 4, !tbaa !29
  call void @llvm.lifetime.start.p0(i64 4, ptr %6) #8
  %24 = load ptr, ptr %3, align 8, !tbaa !67
  %25 = getelementptr inbounds nuw %struct.APContext, ptr %24, i32 0, i32 1
  %26 = load i32, ptr %25, align 4, !tbaa !72
  store i32 %26, ptr %6, align 4, !tbaa !29
  call void @llvm.lifetime.start.p0(i64 4, ptr %7) #8
  %27 = load ptr, ptr %3, align 8, !tbaa !67
  %28 = getelementptr inbounds nuw %struct.APContext, ptr %27, i32 0, i32 1
  %29 = load i32, ptr %28, align 4, !tbaa !72
  %30 = add nsw i32 %29, 1
  %31 = load ptr, ptr %3, align 8, !tbaa !67
  %32 = getelementptr inbounds nuw %struct.APContext, ptr %31, i32 0, i32 0
  %33 = load i32, ptr %32, align 8, !tbaa !70
  %34 = icmp sge i32 %30, %33
  br i1 %34, label %35, label %36

35:                                               ; preds = %21
  br label %41

36:                                               ; preds = %21
  %37 = load ptr, ptr %3, align 8, !tbaa !67
  %38 = getelementptr inbounds nuw %struct.APContext, ptr %37, i32 0, i32 1
  %39 = load i32, ptr %38, align 4, !tbaa !72
  %40 = add nsw i32 %39, 1
  br label %41

41:                                               ; preds = %36, %35
  %42 = phi i32 [ 0, %35 ], [ %40, %36 ]
  store i32 %42, ptr %7, align 4, !tbaa !29
  call void @llvm.lifetime.start.p0(i64 8, ptr %8) #8
  %43 = load ptr, ptr %3, align 8, !tbaa !67
  %44 = getelementptr inbounds nuw %struct.APContext, ptr %43, i32 0, i32 5
  %45 = load double, ptr %44, align 8, !tbaa !78
  %46 = load double, ptr %4, align 8, !tbaa !68
  %47 = load ptr, ptr %3, align 8, !tbaa !67
  %48 = getelementptr inbounds nuw %struct.APContext, ptr %47, i32 0, i32 4
  %49 = load double, ptr %48, align 8, !tbaa !77
  %50 = load ptr, ptr %3, align 8, !tbaa !67
  %51 = getelementptr inbounds nuw %struct.APContext, ptr %50, i32 0, i32 2
  %52 = load ptr, ptr %51, align 8, !tbaa !73
  %53 = load i32, ptr %5, align 4, !tbaa !29
  %54 = sext i32 %53 to i64
  %55 = getelementptr inbounds double, ptr %52, i64 %54
  %56 = load double, ptr %55, align 8, !tbaa !68
  %57 = fmul nsz double %49, %56
  %58 = call nsz double @llvm.fmuladd.f64(double %45, double %46, double %57)
  %59 = load ptr, ptr %3, align 8, !tbaa !67
  %60 = getelementptr inbounds nuw %struct.APContext, ptr %59, i32 0, i32 7
  %61 = load double, ptr %60, align 8, !tbaa !76
  %62 = load ptr, ptr %3, align 8, !tbaa !67
  %63 = getelementptr inbounds nuw %struct.APContext, ptr %62, i32 0, i32 2
  %64 = load ptr, ptr %63, align 8, !tbaa !73
  %65 = load i32, ptr %7, align 4, !tbaa !29
  %66 = sext i32 %65 to i64
  %67 = getelementptr inbounds double, ptr %64, i64 %66
  %68 = load double, ptr %67, align 8, !tbaa !68
  %69 = call nsz double @llvm.fmuladd.f64(double %61, double %68, double %58)
  %70 = load ptr, ptr %3, align 8, !tbaa !67
  %71 = getelementptr inbounds nuw %struct.APContext, ptr %70, i32 0, i32 6
  %72 = load double, ptr %71, align 8, !tbaa !75
  %73 = load ptr, ptr %3, align 8, !tbaa !67
  %74 = getelementptr inbounds nuw %struct.APContext, ptr %73, i32 0, i32 2
  %75 = load ptr, ptr %74, align 8, !tbaa !73
  %76 = load i32, ptr %6, align 4, !tbaa !29
  %77 = sext i32 %76 to i64
  %78 = getelementptr inbounds double, ptr %75, i64 %77
  %79 = load double, ptr %78, align 8, !tbaa !68
  %80 = call nsz double @llvm.fmuladd.f64(double %72, double %79, double %69)
  %81 = load ptr, ptr %3, align 8, !tbaa !67
  %82 = getelementptr inbounds nuw %struct.APContext, ptr %81, i32 0, i32 7
  %83 = load double, ptr %82, align 8, !tbaa !76
  %84 = load ptr, ptr %3, align 8, !tbaa !67
  %85 = getelementptr inbounds nuw %struct.APContext, ptr %84, i32 0, i32 3
  %86 = load ptr, ptr %85, align 8, !tbaa !74
  %87 = load i32, ptr %5, align 4, !tbaa !29
  %88 = sext i32 %87 to i64
  %89 = getelementptr inbounds double, ptr %86, i64 %88
  %90 = load double, ptr %89, align 8, !tbaa !68
  %91 = fneg nsz double %83
  %92 = call nsz double @llvm.fmuladd.f64(double %91, double %90, double %80)
  %93 = load ptr, ptr %3, align 8, !tbaa !67
  %94 = getelementptr inbounds nuw %struct.APContext, ptr %93, i32 0, i32 4
  %95 = load double, ptr %94, align 8, !tbaa !77
  %96 = load ptr, ptr %3, align 8, !tbaa !67
  %97 = getelementptr inbounds nuw %struct.APContext, ptr %96, i32 0, i32 3
  %98 = load ptr, ptr %97, align 8, !tbaa !74
  %99 = load i32, ptr %7, align 4, !tbaa !29
  %100 = sext i32 %99 to i64
  %101 = getelementptr inbounds double, ptr %98, i64 %100
  %102 = load double, ptr %101, align 8, !tbaa !68
  %103 = fneg nsz double %95
  %104 = call nsz double @llvm.fmuladd.f64(double %103, double %102, double %92)
  %105 = load ptr, ptr %3, align 8, !tbaa !67
  %106 = getelementptr inbounds nuw %struct.APContext, ptr %105, i32 0, i32 5
  %107 = load double, ptr %106, align 8, !tbaa !78
  %108 = load ptr, ptr %3, align 8, !tbaa !67
  %109 = getelementptr inbounds nuw %struct.APContext, ptr %108, i32 0, i32 3
  %110 = load ptr, ptr %109, align 8, !tbaa !74
  %111 = load i32, ptr %6, align 4, !tbaa !29
  %112 = sext i32 %111 to i64
  %113 = getelementptr inbounds double, ptr %110, i64 %112
  %114 = load double, ptr %113, align 8, !tbaa !68
  %115 = fneg nsz double %107
  %116 = call nsz double @llvm.fmuladd.f64(double %115, double %114, double %104)
  store double %116, ptr %8, align 8, !tbaa !68
  %117 = load double, ptr %4, align 8, !tbaa !68
  %118 = load ptr, ptr %3, align 8, !tbaa !67
  %119 = getelementptr inbounds nuw %struct.APContext, ptr %118, i32 0, i32 2
  %120 = load ptr, ptr %119, align 8, !tbaa !73
  %121 = load ptr, ptr %3, align 8, !tbaa !67
  %122 = getelementptr inbounds nuw %struct.APContext, ptr %121, i32 0, i32 1
  %123 = load i32, ptr %122, align 4, !tbaa !72
  %124 = sext i32 %123 to i64
  %125 = getelementptr inbounds double, ptr %120, i64 %124
  store double %117, ptr %125, align 8, !tbaa !68
  %126 = load double, ptr %8, align 8, !tbaa !68
  %127 = load ptr, ptr %3, align 8, !tbaa !67
  %128 = getelementptr inbounds nuw %struct.APContext, ptr %127, i32 0, i32 3
  %129 = load ptr, ptr %128, align 8, !tbaa !74
  %130 = load ptr, ptr %3, align 8, !tbaa !67
  %131 = getelementptr inbounds nuw %struct.APContext, ptr %130, i32 0, i32 1
  %132 = load i32, ptr %131, align 4, !tbaa !72
  %133 = sext i32 %132 to i64
  %134 = getelementptr inbounds double, ptr %129, i64 %133
  store double %126, ptr %134, align 8, !tbaa !68
  %135 = load ptr, ptr %3, align 8, !tbaa !67
  %136 = getelementptr inbounds nuw %struct.APContext, ptr %135, i32 0, i32 1
  %137 = load i32, ptr %136, align 4, !tbaa !72
  %138 = add nsw i32 %137, 1
  %139 = load ptr, ptr %3, align 8, !tbaa !67
  %140 = getelementptr inbounds nuw %struct.APContext, ptr %139, i32 0, i32 0
  %141 = load i32, ptr %140, align 8, !tbaa !70
  %142 = icmp sge i32 %138, %141
  br i1 %142, label %143, label %144

143:                                              ; preds = %41
  br label %149

144:                                              ; preds = %41
  %145 = load ptr, ptr %3, align 8, !tbaa !67
  %146 = getelementptr inbounds nuw %struct.APContext, ptr %145, i32 0, i32 1
  %147 = load i32, ptr %146, align 4, !tbaa !72
  %148 = add nsw i32 %147, 1
  br label %149

149:                                              ; preds = %144, %143
  %150 = phi i32 [ 0, %143 ], [ %148, %144 ]
  %151 = load ptr, ptr %3, align 8, !tbaa !67
  %152 = getelementptr inbounds nuw %struct.APContext, ptr %151, i32 0, i32 1
  store i32 %150, ptr %152, align 4, !tbaa !72
  %153 = load double, ptr %8, align 8, !tbaa !68
  call void @llvm.lifetime.end.p0(i64 8, ptr %8) #8
  call void @llvm.lifetime.end.p0(i64 4, ptr %7) #8
  call void @llvm.lifetime.end.p0(i64 4, ptr %6) #8
  call void @llvm.lifetime.end.p0(i64 4, ptr %5) #8
  ret double %153
}

; Function Attrs: nounwind uwtable
define internal void @filter_channel_dbl(ptr noundef %0, i32 noundef %1, ptr noundef %2, ptr noundef %3) #1 {
  %5 = alloca ptr, align 8
  %6 = alloca i32, align 4
  %7 = alloca ptr, align 8
  %8 = alloca ptr, align 8
  %9 = alloca ptr, align 8
  %10 = alloca ptr, align 8
  %11 = alloca ptr, align 8
  %12 = alloca i32, align 4
  %13 = alloca i32, align 4
  %14 = alloca ptr, align 8
  %15 = alloca i32, align 4
  %16 = alloca i32, align 4
  %17 = alloca i32, align 4
  %18 = alloca ptr, align 8
  store ptr %0, ptr %5, align 8, !tbaa !4
  store i32 %1, ptr %6, align 4, !tbaa !29
  store ptr %2, ptr %7, align 8, !tbaa !37
  store ptr %3, ptr %8, align 8, !tbaa !37
  call void @llvm.lifetime.start.p0(i64 8, ptr %9) #8
  %19 = load ptr, ptr %5, align 8, !tbaa !4
  %20 = getelementptr inbounds nuw %struct.AVFilterContext, ptr %19, i32 0, i32 9
  %21 = load ptr, ptr %20, align 8, !tbaa !9
  store ptr %21, ptr %9, align 8, !tbaa !22
  call void @llvm.lifetime.start.p0(i64 8, ptr %10) #8
  %22 = load ptr, ptr %7, align 8, !tbaa !37
  %23 = getelementptr inbounds nuw %struct.AVFrame, ptr %22, i32 0, i32 2
  %24 = load ptr, ptr %23, align 8, !tbaa !82
  %25 = load i32, ptr %6, align 4, !tbaa !29
  %26 = sext i32 %25 to i64
  %27 = getelementptr inbounds ptr, ptr %24, i64 %26
  %28 = load ptr, ptr %27, align 8, !tbaa !83
  store ptr %28, ptr %10, align 8, !tbaa !84
  call void @llvm.lifetime.start.p0(i64 8, ptr %11) #8
  %29 = load ptr, ptr %8, align 8, !tbaa !37
  %30 = getelementptr inbounds nuw %struct.AVFrame, ptr %29, i32 0, i32 2
  %31 = load ptr, ptr %30, align 8, !tbaa !82
  %32 = load i32, ptr %6, align 4, !tbaa !29
  %33 = sext i32 %32 to i64
  %34 = getelementptr inbounds ptr, ptr %31, i64 %33
  %35 = load ptr, ptr %34, align 8, !tbaa !83
  store ptr %35, ptr %11, align 8, !tbaa !84
  call void @llvm.lifetime.start.p0(i64 4, ptr %12) #8
  %36 = load ptr, ptr %7, align 8, !tbaa !37
  %37 = getelementptr inbounds nuw %struct.AVFrame, ptr %36, i32 0, i32 5
  %38 = load i32, ptr %37, align 8, !tbaa !48
  store i32 %38, ptr %12, align 4, !tbaa !29
  call void @llvm.lifetime.start.p0(i64 4, ptr %13) #8
  %39 = load ptr, ptr %9, align 8, !tbaa !22
  %40 = getelementptr inbounds nuw %struct.ADecorrelateContext, ptr %39, i32 0, i32 1
  %41 = load i32, ptr %40, align 8, !tbaa !31
  store i32 %41, ptr %13, align 4, !tbaa !29
  call void @llvm.lifetime.start.p0(i64 8, ptr %14) #8
  %42 = load ptr, ptr %9, align 8, !tbaa !22
  %43 = getelementptr inbounds nuw %struct.ADecorrelateContext, ptr %42, i32 0, i32 4
  %44 = load ptr, ptr %43, align 8, !tbaa !24
  %45 = load i32, ptr %6, align 4, !tbaa !29
  %46 = sext i32 %45 to i64
  %47 = getelementptr inbounds [16 x %struct.APContext], ptr %44, i64 %46
  %48 = getelementptr inbounds [16 x %struct.APContext], ptr %47, i64 0, i64 0
  store ptr %48, ptr %14, align 8, !tbaa !67
  call void @llvm.lifetime.start.p0(i64 4, ptr %15) #8
  store i32 0, ptr %15, align 4, !tbaa !29
  br label %49

49:                                               ; preds = %96, %4
  %50 = load i32, ptr %15, align 4, !tbaa !29
  %51 = load i32, ptr %12, align 4, !tbaa !29
  %52 = icmp slt i32 %50, %51
  br i1 %52, label %54, label %53

53:                                               ; preds = %49
  store i32 2, ptr %16, align 4
  call void @llvm.lifetime.end.p0(i64 4, ptr %15) #8
  br label %99

54:                                               ; preds = %49
  %55 = load ptr, ptr %14, align 8, !tbaa !67
  %56 = load ptr, ptr %10, align 8, !tbaa !84
  %57 = load i32, ptr %15, align 4, !tbaa !29
  %58 = sext i32 %57 to i64
  %59 = getelementptr inbounds double, ptr %56, i64 %58
  %60 = load double, ptr %59, align 8, !tbaa !68
  %61 = call nsz double @ap_run(ptr noundef %55, double noundef %60)
  %62 = load ptr, ptr %11, align 8, !tbaa !84
  %63 = load i32, ptr %15, align 4, !tbaa !29
  %64 = sext i32 %63 to i64
  %65 = getelementptr inbounds double, ptr %62, i64 %64
  store double %61, ptr %65, align 8, !tbaa !68
  call void @llvm.lifetime.start.p0(i64 4, ptr %17) #8
  store i32 1, ptr %17, align 4, !tbaa !29
  br label %66

66:                                               ; preds = %92, %54
  %67 = load i32, ptr %17, align 4, !tbaa !29
  %68 = load i32, ptr %13, align 4, !tbaa !29
  %69 = icmp slt i32 %67, %68
  br i1 %69, label %71, label %70

70:                                               ; preds = %66
  store i32 5, ptr %16, align 4
  call void @llvm.lifetime.end.p0(i64 4, ptr %17) #8
  br label %95

71:                                               ; preds = %66
  call void @llvm.lifetime.start.p0(i64 8, ptr %18) #8
  %72 = load ptr, ptr %9, align 8, !tbaa !22
  %73 = getelementptr inbounds nuw %struct.ADecorrelateContext, ptr %72, i32 0, i32 4
  %74 = load ptr, ptr %73, align 8, !tbaa !24
  %75 = load i32, ptr %6, align 4, !tbaa !29
  %76 = sext i32 %75 to i64
  %77 = getelementptr inbounds [16 x %struct.APContext], ptr %74, i64 %76
  %78 = load i32, ptr %17, align 4, !tbaa !29
  %79 = sext i32 %78 to i64
  %80 = getelementptr inbounds [16 x %struct.APContext], ptr %77, i64 0, i64 %79
  store ptr %80, ptr %18, align 8, !tbaa !67
  %81 = load ptr, ptr %18, align 8, !tbaa !67
  %82 = load ptr, ptr %11, align 8, !tbaa !84
  %83 = load i32, ptr %15, align 4, !tbaa !29
  %84 = sext i32 %83 to i64
  %85 = getelementptr inbounds double, ptr %82, i64 %84
  %86 = load double, ptr %85, align 8, !tbaa !68
  %87 = call nsz double @ap_run(ptr noundef %81, double noundef %86)
  %88 = load ptr, ptr %11, align 8, !tbaa !84
  %89 = load i32, ptr %15, align 4, !tbaa !29
  %90 = sext i32 %89 to i64
  %91 = getelementptr inbounds double, ptr %88, i64 %90
  store double %87, ptr %91, align 8, !tbaa !68
  call void @llvm.lifetime.end.p0(i64 8, ptr %18) #8
  br label %92

92:                                               ; preds = %71
  %93 = load i32, ptr %17, align 4, !tbaa !29
  %94 = add nsw i32 %93, 1
  store i32 %94, ptr %17, align 4, !tbaa !29
  br label %66, !llvm.loop !85

95:                                               ; preds = %70
  br label %96

96:                                               ; preds = %95
  %97 = load i32, ptr %15, align 4, !tbaa !29
  %98 = add nsw i32 %97, 1
  store i32 %98, ptr %15, align 4, !tbaa !29
  br label %49, !llvm.loop !86

99:                                               ; preds = %53
  call void @llvm.lifetime.end.p0(i64 8, ptr %14) #8
  call void @llvm.lifetime.end.p0(i64 4, ptr %13) #8
  call void @llvm.lifetime.end.p0(i64 4, ptr %12) #8
  call void @llvm.lifetime.end.p0(i64 8, ptr %11) #8
  call void @llvm.lifetime.end.p0(i64 8, ptr %10) #8
  call void @llvm.lifetime.end.p0(i64 8, ptr %9) #8
  ret void
}