; Function Attrs: nofree norecurse nosync nounwind memory(readwrite, inaccessiblemem: none) uwtable
define internal void @filter_channel_dbl(ptr noundef readonly captures(none) %0, i32 noundef %1, ptr noundef readonly captures(none) %2, ptr noundef readonly captures(none) %3) #6 {
  %5 = getelementptr inbounds nuw i8, ptr %0, i64 72
  %6 = load ptr, ptr %5, align 8, !tbaa !4
  %7 = getelementptr inbounds nuw i8, ptr %2, i64 96
  %8 = load ptr, ptr %7, align 8, !tbaa !73
  %9 = sext i32 %1 to i64
  %10 = getelementptr inbounds ptr, ptr %8, i64 %9
  %11 = load ptr, ptr %10, align 8, !tbaa !74
  %12 = getelementptr inbounds nuw i8, ptr %3, i64 96
  %13 = load ptr, ptr %12, align 8, !tbaa !73
  %14 = getelementptr inbounds ptr, ptr %13, i64 %9
  %15 = load ptr, ptr %14, align 8, !tbaa !74
  %16 = getelementptr inbounds nuw i8, ptr %2, i64 112
  %17 = load i32, ptr %16, align 8, !tbaa !44
  %18 = getelementptr inbounds nuw i8, ptr %6, i64 8
  %19 = load i32, ptr %18, align 8, !tbaa !26
  %20 = getelementptr inbounds nuw i8, ptr %6, i64 32
  %21 = load ptr, ptr %20, align 8, !tbaa !20
  %22 = icmp sgt i32 %17, 0
  br i1 %22, label %.lr.ph36, label %112

.lr.ph36:                                         ; preds = %4
  %23 = getelementptr inbounds [16 x %struct.APContext], ptr %21, i64 %9
  %24 = getelementptr inbounds nuw i8, ptr %23, i64 4
  %.pre.i = load i32, ptr %23, align 8, !tbaa !57
  %25 = getelementptr inbounds nuw i8, ptr %23, i64 32
  %26 = getelementptr inbounds nuw i8, ptr %23, i64 24
  %27 = getelementptr inbounds nuw i8, ptr %23, i64 8
  %28 = load ptr, ptr %27, align 8, !tbaa !61
  %29 = getelementptr inbounds nuw i8, ptr %23, i64 48
  %30 = getelementptr inbounds nuw i8, ptr %23, i64 40
  %31 = getelementptr inbounds nuw i8, ptr %23, i64 16
  %32 = load ptr, ptr %31, align 8, !tbaa !62
  %33 = icmp sgt i32 %19, 1
  %.promoted = load i32, ptr %24, align 4, !tbaa !60
  %wide.trip.count49 = zext nneg i32 %17 to i64
  br i1 %33, label %.lr.ph.us.preheader, label %.lr.ph36.split

.lr.ph.us.preheader:                              ; preds = %.lr.ph36
  %wide.trip.count44 = zext nneg i32 %19 to i64
  br label %.lr.ph.us

.lr.ph.us:                                        ; preds = %.lr.ph.us.preheader, %._crit_edge.us
  %indvars.iv46 = phi i64 [ 0, %.lr.ph.us.preheader ], [ %indvars.iv.next47, %._crit_edge.us ]
  %narrow.i38.us = phi i32 [ %.promoted, %.lr.ph.us.preheader ], [ %narrow.i.us, %._crit_edge.us ]
  %34 = getelementptr inbounds nuw double, ptr %11, i64 %indvars.iv46
  %35 = load double, ptr %34, align 8, !tbaa !75
  %36 = icmp slt i32 %narrow.i38.us, 1
  %spec.select40.i.us = select i1 %36, i32 %.pre.i, i32 %narrow.i38.us
  %37 = add nsw i32 %spec.select40.i.us, -1
  %38 = add nsw i32 %narrow.i38.us, 1
  %.not.i.us = icmp slt i32 %38, %.pre.i
  %narrow.i.us = select i1 %.not.i.us, i32 %38, i32 0
  %spec.select.i.us = sext i32 %narrow.i.us to i64
  %39 = load double, ptr %25, align 8, !tbaa !65
  %40 = load double, ptr %26, align 8, !tbaa !64
  %41 = sext i32 %37 to i64
  %42 = getelementptr inbounds double, ptr %28, i64 %41
  %43 = load double, ptr %42, align 8, !tbaa !75
  %44 = fmul nsz double %40, %43
  %45 = tail call nsz double @llvm.fmuladd.f64(double %39, double %35, double %44)
  %46 = load double, ptr %29, align 8, !tbaa !63
  %47 = getelementptr inbounds double, ptr %28, i64 %spec.select.i.us
  %48 = load double, ptr %47, align 8, !tbaa !75
  %49 = tail call nsz double @llvm.fmuladd.f64(double %46, double %48, double %45)
  %50 = load double, ptr %30, align 8, !tbaa !66
  %51 = sext i32 %narrow.i38.us to i64
  %52 = getelementptr inbounds double, ptr %28, i64 %51
  %53 = load double, ptr %52, align 8, !tbaa !75
  %54 = tail call nsz double @llvm.fmuladd.f64(double %50, double %53, double %49)
  %55 = getelementptr inbounds double, ptr %32, i64 %41
  %56 = load double, ptr %55, align 8, !tbaa !75
  %57 = fneg nsz double %46
  %58 = tail call nsz double @llvm.fmuladd.f64(double %57, double %56, double %54)
  %59 = getelementptr inbounds double, ptr %32, i64 %spec.select.i.us
  %60 = load double, ptr %59, align 8, !tbaa !75
  %61 = fneg nsz double %40
  %62 = tail call nsz double @llvm.fmuladd.f64(double %61, double %60, double %58)
  %63 = getelementptr inbounds double, ptr %32, i64 %51
  %64 = load double, ptr %63, align 8, !tbaa !75
  %65 = fneg nsz double %39
  %66 = tail call nsz double @llvm.fmuladd.f64(double %65, double %64, double %62)
  store double %35, ptr %52, align 8, !tbaa !75
  store double %66, ptr %63, align 8, !tbaa !75
  %67 = getelementptr inbounds nuw double, ptr %15, i64 %indvars.iv46
  store double %66, ptr %67, align 8, !tbaa !75
  br label %68

68:                                               ; preds = %.lr.ph.us, %68
  %69 = phi double [ %66, %.lr.ph.us ], [ %111, %68 ]
  %indvars.iv41 = phi i64 [ 1, %.lr.ph.us ], [ %indvars.iv.next42, %68 ]
  %70 = getelementptr inbounds [16 x %struct.APContext], ptr %21, i64 %9, i64 %indvars.iv41
  %71 = getelementptr inbounds nuw i8, ptr %70, i64 4
  %72 = load i32, ptr %71, align 4, !tbaa !60
  %73 = icmp slt i32 %72, 1
  %.pre.i28.us = load i32, ptr %70, align 8, !tbaa !57
  %spec.select40.i29.us = select i1 %73, i32 %.pre.i28.us, i32 %72
  %74 = add nsw i32 %spec.select40.i29.us, -1
  %75 = add nsw i32 %72, 1
  %.not.i30.us = icmp slt i32 %75, %.pre.i28.us
  %narrow.i31.us = select i1 %.not.i30.us, i32 %75, i32 0
  %spec.select.i32.us = sext i32 %narrow.i31.us to i64
  %76 = getelementptr inbounds nuw i8, ptr %70, i64 32
  %77 = load double, ptr %76, align 8, !tbaa !65
  %78 = getelementptr inbounds nuw i8, ptr %70, i64 24
  %79 = load double, ptr %78, align 8, !tbaa !64
  %80 = getelementptr inbounds nuw i8, ptr %70, i64 8
  %81 = load ptr, ptr %80, align 8, !tbaa !61
  %82 = sext i32 %74 to i64
  %83 = getelementptr inbounds double, ptr %81, i64 %82
  %84 = load double, ptr %83, align 8, !tbaa !75
  %85 = fmul nsz double %79, %84
  %86 = tail call nsz double @llvm.fmuladd.f64(double %77, double %69, double %85)
  %87 = getelementptr inbounds nuw i8, ptr %70, i64 48
  %88 = load double, ptr %87, align 8, !tbaa !63
  %89 = getelementptr inbounds double, ptr %81, i64 %spec.select.i32.us
  %90 = load double, ptr %89, align 8, !tbaa !75
  %91 = tail call nsz double @llvm.fmuladd.f64(double %88, double %90, double %86)
  %92 = getelementptr inbounds nuw i8, ptr %70, i64 40
  %93 = load double, ptr %92, align 8, !tbaa !66
  %94 = sext i32 %72 to i64
  %95 = getelementptr inbounds double, ptr %81, i64 %94
  %96 = load double, ptr %95, align 8, !tbaa !75
  %97 = tail call nsz double @llvm.fmuladd.f64(double %93, double %96, double %91)
  %98 = getelementptr inbounds nuw i8, ptr %70, i64 16
  %99 = load ptr, ptr %98, align 8, !tbaa !62
  %100 = getelementptr inbounds double, ptr %99, i64 %82
  %101 = load double, ptr %100, align 8, !tbaa !75
  %102 = fneg nsz double %88
  %103 = tail call nsz double @llvm.fmuladd.f64(double %102, double %101, double %97)
  %104 = getelementptr inbounds double, ptr %99, i64 %spec.select.i32.us
  %105 = load double, ptr %104, align 8, !tbaa !75
  %106 = fneg nsz double %79
  %107 = tail call nsz double @llvm.fmuladd.f64(double %106, double %105, double %103)
  %108 = getelementptr inbounds double, ptr %99, i64 %94
  %109 = load double, ptr %108, align 8, !tbaa !75
  %110 = fneg nsz double %77
  %111 = tail call nsz double @llvm.fmuladd.f64(double %110, double %109, double %107)
  store double %69, ptr %95, align 8, !tbaa !75
  store double %111, ptr %108, align 8, !tbaa !75
  store i32 %narrow.i31.us, ptr %71, align 4, !tbaa !60
  store double %111, ptr %67, align 8, !tbaa !75
  %indvars.iv.next42 = add nuw nsw i64 %indvars.iv41, 1
  %exitcond45.not = icmp eq i64 %indvars.iv.next42, %wide.trip.count44
  br i1 %exitcond45.not, label %._crit_edge.us, label %68, !llvm.loop !76

._crit_edge.us:                                   ; preds = %68
  %indvars.iv.next47 = add nuw nsw i64 %indvars.iv46, 1
  %exitcond50.not = icmp eq i64 %indvars.iv.next47, %wide.trip.count49
  br i1 %exitcond50.not, label %._crit_edge37, label %.lr.ph.us, !llvm.loop !77

._crit_edge37:                                    ; preds = %.lr.ph36.split, %._crit_edge.us
  %.us-phi = phi i32 [ %narrow.i.us, %._crit_edge.us ], [ %narrow.i, %.lr.ph36.split ]
  store i32 %.us-phi, ptr %24, align 4, !tbaa !60
  br label %112

112:                                              ; preds = %._crit_edge37, %4
  ret void

.lr.ph36.split:                                   ; preds = %.lr.ph36, %.lr.ph36.split
  %indvars.iv = phi i64 [ %indvars.iv.next, %.lr.ph36.split ], [ 0, %.lr.ph36 ]
  %narrow.i38 = phi i32 [ %narrow.i, %.lr.ph36.split ], [ %.promoted, %.lr.ph36 ]
  %113 = getelementptr inbounds nuw double, ptr %11, i64 %indvars.iv
  %114 = load double, ptr %113, align 8, !tbaa !75
  %115 = icmp slt i32 %narrow.i38, 1
  %spec.select40.i = select i1 %115, i32 %.pre.i, i32 %narrow.i38
  %116 = add nsw i32 %spec.select40.i, -1
  %117 = add nsw i32 %narrow.i38, 1
  %.not.i = icmp slt i32 %117, %.pre.i
  %narrow.i = select i1 %.not.i, i32 %117, i32 0
  %spec.select.i = sext i32 %narrow.i to i64
  %118 = load double, ptr %25, align 8, !tbaa !65
  %119 = load double, ptr %26, align 8, !tbaa !64
  %120 = sext i32 %116 to i64
  %121 = getelementptr inbounds double, ptr %28, i64 %120
  %122 = load double, ptr %121, align 8, !tbaa !75
  %123 = fmul nsz double %119, %122
  %124 = tail call nsz double @llvm.fmuladd.f64(double %118, double %114, double %123)
  %125 = load double, ptr %29, align 8, !tbaa !63
  %126 = getelementptr inbounds double, ptr %28, i64 %spec.select.i
  %127 = load double, ptr %126, align 8, !tbaa !75
  %128 = tail call nsz double @llvm.fmuladd.f64(double %125, double %127, double %124)
  %129 = load double, ptr %30, align 8, !tbaa !66
  %130 = sext i32 %narrow.i38 to i64
  %131 = getelementptr inbounds double, ptr %28, i64 %130
  %132 = load double, ptr %131, align 8, !tbaa !75
  %133 = tail call nsz double @llvm.fmuladd.f64(double %129, double %132, double %128)
  %134 = getelementptr inbounds double, ptr %32, i64 %120
  %135 = load double, ptr %134, align 8, !tbaa !75
  %136 = fneg nsz double %125
  %137 = tail call nsz double @llvm.fmuladd.f64(double %136, double %135, double %133)
  %138 = getelementptr inbounds double, ptr %32, i64 %spec.select.i
  %139 = load double, ptr %138, align 8, !tbaa !75
  %140 = fneg nsz double %119
  %141 = tail call nsz double @llvm.fmuladd.f64(double %140, double %139, double %137)
  %142 = getelementptr inbounds double, ptr %32, i64 %130
  %143 = load double, ptr %142, align 8, !tbaa !75
  %144 = fneg nsz double %118
  %145 = tail call nsz double @llvm.fmuladd.f64(double %144, double %143, double %141)
  store double %114, ptr %131, align 8, !tbaa !75
  store double %145, ptr %142, align 8, !tbaa !75
  %146 = getelementptr inbounds nuw double, ptr %15, i64 %indvars.iv
  store double %145, ptr %146, align 8, !tbaa !75
  %indvars.iv.next = add nuw nsw i64 %indvars.iv, 1
  %exitcond.not = icmp eq i64 %indvars.iv.next, %wide.trip.count49
  br i1 %exitcond.not, label %._crit_edge37, label %.lr.ph36.split, !llvm.loop !77
}